; Function Attrs: mustprogress uwtable
define void @_ZNK6icu_7511UXMLElement10appendTextERNS_13UnicodeStringEa(ptr noundef nonnull align 8 dereferenceable(216) %this, ptr noundef nonnull align 8 dereferenceable(64) %text, i8 noundef signext %recurse) local_unnamed_addr #1 align 2 {
entry:
  %fChildren = getelementptr inbounds i8, ptr %this, i64 168
  %count.i = getelementptr inbounds i8, ptr %this, i64 176
  %0 = load i32, ptr %count.i, align 8
  %cmp8 = icmp sgt i32 %0, 0
  br i1 %cmp8, label %for.body.lr.ph, label %for.end

for.body.lr.ph:                                   ; preds = %entry
  %tobool.not = icmp eq i8 %recurse, 0
  br i1 %tobool.not, label %for.body.us, label %for.body

for.body.us:                                      ; preds = %for.body.lr.ph, %for.inc.us
  %i.09.us = phi i32 [ %inc.us, %for.inc.us ], [ 0, %for.body.lr.ph ]
  %call3.us = tail call noundef ptr @_ZNK6icu_757UVector9elementAtEi(ptr noundef nonnull align 8 dereferenceable(40) %fChildren, i32 noundef %i.09.us)
  %1 = icmp eq ptr %call3.us, null
  br i1 %1, label %for.inc.us, label %dynamic_cast.end.us

dynamic_cast.end.us:                              ; preds = %for.body.us
  %2 = tail call ptr @__dynamic_cast(ptr nonnull %call3.us, ptr nonnull @_ZTIN6icu_757UObjectE, ptr nonnull @_ZTIN6icu_7513UnicodeStringE, i64 0) #11
  %cmp4.not.us = icmp eq ptr %2, null
  br i1 %cmp4.not.us, label %for.inc.us, label %if.then.us

if.then.us:                                       ; preds = %dynamic_cast.end.us
  %fUnion.i.i.i.us = getelementptr inbounds i8, ptr %2, i64 8
  %3 = load i16, ptr %fUnion.i.i.i.us, align 8
  %cmp.i.i.i.us = icmp slt i16 %3, 0
  %4 = ashr i16 %3, 5
  %shr.i.i.i.us = sext i16 %4 to i32
  %fLength.i.i.us = getelementptr inbounds i8, ptr %2, i64 12
  %5 = load i32, ptr %fLength.i.i.us, align 4
  %cond.i.i.us = select i1 %cmp.i.i.i.us, i32 %5, i32 %shr.i.i.i.us
  %call2.i.us = tail call noundef nonnull align 8 dereferenceable(64) ptr @_ZN6icu_7513UnicodeString8doAppendERKS0_ii(ptr noundef nonnull align 8 dereferenceable(64) %text, ptr noundef nonnull align 8 dereferenceable(64) %2, i32 noundef 0, i32 noundef %cond.i.i.us)
  br label %for.inc.us

for.inc.us:                                       ; preds = %for.body.us, %dynamic_cast.end.us, %if.then.us
  %inc.us = add nuw nsw i32 %i.09.us, 1
  %exitcond11.not = icmp eq i32 %inc.us, %0
  br i1 %exitcond11.not, label %for.end, label %for.body.us, !llvm.loop !18

for.body:                                         ; preds = %for.body.lr.ph, %for.inc
  %i.09 = phi i32 [ %inc, %for.inc ], [ 0, %for.body.lr.ph ]
  %call3 = tail call noundef ptr @_ZNK6icu_757UVector9elementAtEi(ptr noundef nonnull align 8 dereferenceable(40) %fChildren, i32 noundef %i.09)
  %6 = icmp eq ptr %call3, null
  br i1 %6, label %if.else, label %dynamic_cast.end

dynamic_cast.end:                                 ; preds = %for.body
  %7 = tail call ptr @__dynamic_cast(ptr nonnull %call3, ptr nonnull @_ZTIN6icu_757UObjectE, ptr nonnull @_ZTIN6icu_7513UnicodeStringE, i64 0) #11
  %cmp4.not = icmp eq ptr %7, null
  br i1 %cmp4.not, label %if.else, label %if.then

if.then:                                          ; preds = %dynamic_cast.end
  %fUnion.i.i.i = getelementptr inbounds i8, ptr %7, i64 8
  %8 = load i16, ptr %fUnion.i.i.i, align 8
  %cmp.i.i.i = icmp slt i16 %8, 0
  %9 = ashr i16 %8, 5
  %shr.i.i.i = sext i16 %9 to i32
  %fLength.i.i = getelementptr inbounds i8, ptr %7, i64 12
  %10 = load i32, ptr %fLength.i.i, align 4
  %cond.i.i = select i1 %cmp.i.i.i, i32 %10, i32 %shr.i.i.i
  %call2.i = tail call noundef nonnull align 8 dereferenceable(64) ptr @_ZN6icu_7513UnicodeString8doAppendERKS0_ii(ptr noundef nonnull align 8 dereferenceable(64) %text, ptr noundef nonnull align 8 dereferenceable(64) %7, i32 noundef 0, i32 noundef %cond.i.i)
  br label %for.inc

if.else:                                          ; preds = %for.body, %dynamic_cast.end
  tail call void @_ZNK6icu_7511UXMLElement10appendTextERNS_13UnicodeStringEa(ptr noundef nonnull align 8 dereferenceable(216) %call3, ptr noundef nonnull align 8 dereferenceable(64) %text, i8 noundef signext %recurse)
  br label %for.inc

for.inc:                                          ; preds = %if.then, %if.else
  %inc = add nuw nsw i32 %i.09, 1
  %exitcond.not = icmp eq i32 %inc, %0
  br i1 %exitcond.not, label %for.end, label %for.body, !llvm.loop !18

for.end:                                          ; preds = %for.inc, %for.inc.us, %entry
  ret void
}